target datalayout = "e-m:e-p270:32:32-p271:32:32-p272:64:64-i64:64-i128:128-f80:128-n8:16:32:64-S128"
target triple = "x86_64-pc-linux-gnu"

; Function Attrs: inlinehint nounwind uwtable
define internal i32 @str_matches_option(ptr noundef %0, ptr noundef %1) #5 {
  %3 = alloca i32, align 4
  %4 = alloca ptr, align 8
  %5 = alloca ptr, align 8
  %6 = alloca i64, align 8
  %7 = alloca i64, align 8
  %8 = alloca i32, align 4
  store ptr %0, ptr %4, align 8
  store ptr %1, ptr %5, align 8
  call void @llvm.lifetime.start.p0(i64 8, ptr %6) #10
  %9 = load ptr, ptr %5, align 8
  %10 = call i64 @strlen(ptr noundef %9) #12
  store i64 %10, ptr %6, align 8
  call void @llvm.lifetime.start.p0(i64 8, ptr %7) #10
  %11 = load ptr, ptr %4, align 8
  %12 = call i64 @strlen(ptr noundef %11) #12
  store i64 %12, ptr %7, align 8
  %13 = load i64, ptr %7, align 8
  %14 = load i64, ptr %6, align 8
  %15 = icmp eq i64 %13, %14
  br i1 %15, label %21, label %16

16:                                               ; preds = %2
  %17 = load i64, ptr %7, align 8
  %18 = load i64, ptr %6, align 8
  %19 = sub i64 %18, 1
  %20 = icmp eq i64 %17, %19
  br i1 %20, label %21, label %29

21:                                               ; preds = %16, %2
  %22 = load ptr, ptr %4, align 8
  %23 = load ptr, ptr %5, align 8
  %24 = load i64, ptr %7, align 8
  %25 = call i32 @strncmp(ptr noundef %22, ptr noundef %23, i64 noundef %24) #12
  %26 = icmp ne i32 %25, 0
  %27 = xor i1 %26, true
  %28 = zext i1 %27 to i32
  store i32 %28, ptr %3, align 4
  store i32 1, ptr %8, align 4
  br label %42

29:                                               ; preds = %16
  %30 = load i64, ptr %7, align 8
  %31 = load i64, ptr %6, align 8
  %32 = icmp ugt i64 %30, %31
  br i1 %32, label %33, label %41

33:                                               ; preds = %29
  %34 = load ptr, ptr %4, align 8
  %35 = load ptr, ptr %5, align 8
  %36 = load i64, ptr %6, align 8
  %37 = call i32 @strncmp(ptr noundef %34, ptr noundef %35, i64 noundef %36) #12
  %38 = icmp ne i32 %37, 0
  %39 = xor i1 %38, true
  %40 = zext i1 %39 to i32
  store i32 %40, ptr %3, align 4
  store i32 1, ptr %8, align 4
  br label %42

41:                                               ; preds = %29
  store i32 0, ptr %3, align 4
  store i32 1, ptr %8, align 4
  br label %42

42:                                               ; preds = %41, %33, %21
  call void @llvm.lifetime.end.p0(i64 8, ptr %7) #10
  call void @llvm.lifetime.end.p0(i64 8, ptr %6) #10
  %43 = load i32, ptr %3, align 4
  ret i32 %43
}