; Function Attrs: inlinehint mustprogress nofree nounwind willreturn memory(argmem: read) uwtable
define internal fastcc range(i32 0, 2) i32 @str_matches_option(ptr noundef readonly captures(none) %0, ptr noundef readonly captures(none) %1) unnamed_addr #16 {
  %3 = tail call i64 @strlen(ptr noundef nonnull dereferenceable(1) %1) #23
  %4 = tail call i64 @strlen(ptr noundef nonnull dereferenceable(1) %0) #23
  %5 = icmp eq i64 %4, %3
  %6 = add i64 %3, -1
  %7 = icmp eq i64 %4, %6
  %or.cond = or i1 %5, %7
  br i1 %or.cond, label %.sink.split, label %8

8:                                                ; preds = %2
  %9 = icmp ugt i64 %4, %3
  br i1 %9, label %.sink.split, label %12

.sink.split:                                      ; preds = %8, %2
  %.sink18 = phi i64 [ %4, %2 ], [ %3, %8 ]
  %10 = tail call i32 @strncmp(ptr noundef nonnull %0, ptr noundef nonnull %1, i64 noundef %.sink18) #23
  %.not = icmp eq i32 %10, 0
  %11 = zext i1 %.not to i32
  br label %12

12:                                               ; preds = %.sink.split, %8
  %.0.shrunk = phi i32 [ 0, %8 ], [ %11, %.sink.split ]
  ret i32 %.0.shrunk
}